; Function Attrs: mustprogress uwtable
define hidden void @_ZN3smt24theory_special_relations13init_model_toERNS0_8relationERNS_15model_generatorE(ptr nocapture noundef nonnull readonly align 8 dereferenceable(145) %this, ptr noundef nonnull align 8 dereferenceable(552) %r, ptr nocapture noundef nonnull readonly align 8 dereferenceable(104) %mg) local_unnamed_addr #3 align 2 personality ptr @__gxx_personality_v0 {
entry:
  %num_children = alloca %class.svector.11, align 8
  %lo = alloca %class.svector.11, align 8
  %hi = alloca %class.svector.11, align 8
  %iv = alloca %class.obj_ref.96, align 8
  store ptr null, ptr %num_children, align 8
  store ptr null, ptr %lo, align 8
  store ptr null, ptr %hi, align 8
  %m_graph = getelementptr inbounds i8, ptr %r, i64 64
  invoke void @_ZN3smt24theory_special_relations8relation4pushEv(ptr noundef nonnull align 8 dereferenceable(552) %r)
          to label %invoke.cont5 unwind label %lpad4

invoke.cont5:                                     ; preds = %entry
  invoke void @_ZN3smt24theory_special_relations13ensure_strictERNS0_5graphE(ptr noundef nonnull align 8 dereferenceable(145) %this, ptr noundef nonnull align 8 dereferenceable(368) %m_graph)
          to label %invoke.cont7 unwind label %lpad4

invoke.cont7:                                     ; preds = %invoke.cont5
  invoke void @_ZN3smt24theory_special_relations11ensure_treeERNS0_5graphE(ptr noundef nonnull align 8 dereferenceable(145) %this, ptr noundef nonnull align 8 dereferenceable(368) %m_graph)
          to label %invoke.cont9 unwind label %lpad4

invoke.cont9:                                     ; preds = %invoke.cont7
  invoke void @_ZN3smt24theory_special_relations14count_childrenERKNS0_5graphER7svectorIjjE(ptr nonnull align 8 poison, ptr noundef nonnull align 8 dereferenceable(368) %m_graph, ptr noundef nonnull align 8 dereferenceable(8) %num_children)
          to label %invoke.cont10 unwind label %lpad4

invoke.cont10:                                    ; preds = %invoke.cont9
  invoke void @_ZN3smt24theory_special_relations15assign_intervalERKNS0_5graphERK7svectorIjjERS5_S8_(ptr nonnull align 8 poison, ptr noundef nonnull align 8 dereferenceable(368) %m_graph, ptr noundef nonnull align 8 dereferenceable(8) %num_children, ptr noundef nonnull align 8 dereferenceable(8) %lo, ptr noundef nonnull align 8 dereferenceable(8) %hi)
          to label %invoke.cont11 unwind label %lpad4

invoke.cont11:                                    ; preds = %invoke.cont10
  invoke void @_ZN3smt24theory_special_relations11mk_intervalERNS0_8relationERNS_15model_generatorER7svectorIjjES7_(ptr nonnull sret(%class.obj_ref.96) align 8 %iv, ptr noundef nonnull align 8 dereferenceable(145) %this, ptr noundef nonnull align 8 dereferenceable(552) %r, ptr noundef nonnull align 8 dereferenceable(104) %mg, ptr noundef nonnull align 8 dereferenceable(8) %lo, ptr noundef nonnull align 8 dereferenceable(8) %hi)
          to label %invoke.cont12 unwind label %lpad4

invoke.cont12:                                    ; preds = %invoke.cont11
  invoke void @_ZN3smt24theory_special_relations8relation3popEj(ptr noundef nonnull align 8 dereferenceable(552) %r, i32 noundef 1)
          to label %invoke.cont14 unwind label %lpad13

invoke.cont14:                                    ; preds = %invoke.cont12
  %call = invoke noalias noundef ptr @_ZN6memory8allocateEm(i64 noundef 56)
          to label %invoke.cont15 unwind label %lpad13

invoke.cont15:                                    ; preds = %invoke.cont14
  %m.i = getelementptr inbounds i8, ptr %this, i64 24
  %0 = load ptr, ptr %m.i, align 8
  invoke void @_ZN11func_interpC1ER11ast_managerj(ptr noundef nonnull align 8 dereferenceable(56) %call, ptr noundef nonnull align 8 dereferenceable(976) %0, i32 noundef 2)
          to label %invoke.cont18 unwind label %lpad13

invoke.cont18:                                    ; preds = %invoke.cont15
  %1 = load ptr, ptr %iv, align 8
  invoke void @_ZN11func_interp8set_elseEP4expr(ptr noundef nonnull align 8 dereferenceable(56) %call, ptr noundef %1)
          to label %invoke.cont22 unwind label %lpad13

invoke.cont22:                                    ; preds = %invoke.cont18
  %m_model.i = getelementptr inbounds i8, ptr %mg, i64 72
  %2 = load ptr, ptr %m_model.i, align 8
  %m_decl.i = getelementptr inbounds i8, ptr %r, i64 32
  %3 = load ptr, ptr %m_decl.i, align 8
  invoke void @_ZN10model_core13register_declEP9func_declP11func_interp(ptr noundef nonnull align 8 dereferenceable(96) %2, ptr noundef %3, ptr noundef nonnull %call)
          to label %invoke.cont26 unwind label %lpad13

invoke.cont26:                                    ; preds = %invoke.cont22
  %4 = load ptr, ptr %iv, align 8
  %tobool.not.i.i = icmp eq ptr %4, null
  br i1 %tobool.not.i.i, label %_ZN7obj_refI4expr11ast_managerED2Ev.exit, label %if.then.i.i.i

if.then.i.i.i:                                    ; preds = %invoke.cont26
  %m_manager.i.i = getelementptr inbounds i8, ptr %iv, i64 8
  %5 = load ptr, ptr %m_manager.i.i, align 8
  %m_ref_count.i.i.i.i = getelementptr inbounds i8, ptr %4, i64 8
  %6 = load i32, ptr %m_ref_count.i.i.i.i, align 4
  %dec.i.i.i.i = add i32 %6, -1
  store i32 %dec.i.i.i.i, ptr %m_ref_count.i.i.i.i, align 4
  %cmp.i.i.i = icmp eq i32 %dec.i.i.i.i, 0
  br i1 %cmp.i.i.i, label %if.then2.i.i.i, label %_ZN7obj_refI4expr11ast_managerED2Ev.exit

if.then2.i.i.i:                                   ; preds = %if.then.i.i.i
  invoke void @_ZN11ast_manager11delete_nodeEP3ast(ptr noundef nonnull align 8 dereferenceable(976) %5, ptr noundef nonnull %4)
          to label %_ZN7obj_refI4expr11ast_managerED2Ev.exit unwind label %terminate.lpad.i

terminate.lpad.i:                                 ; preds = %if.then2.i.i.i
  %7 = landingpad { ptr, i32 }
          catch ptr null
  %8 = extractvalue { ptr, i32 } %7, 0
  call void @__clang_call_terminate(ptr %8) #21
  unreachable

_ZN7obj_refI4expr11ast_managerED2Ev.exit:         ; preds = %invoke.cont26, %if.then.i.i.i, %if.then2.i.i.i
  %9 = load ptr, ptr %hi, align 8
  %tobool.not.i.i.i = icmp eq ptr %9, null
  br i1 %tobool.not.i.i.i, label %_ZN7svectorIjjED2Ev.exit, label %if.then.i.i.i11

if.then.i.i.i11:                                  ; preds = %_ZN7obj_refI4expr11ast_managerED2Ev.exit
  %add.ptr.i.i.i.i = getelementptr inbounds i8, ptr %9, i64 -8
  invoke void @_ZN6memory10deallocateEPv(ptr noundef nonnull %add.ptr.i.i.i.i)
          to label %_ZN7svectorIjjED2Ev.exit unwind label %terminate.lpad.i.i

terminate.lpad.i.i:                               ; preds = %if.then.i.i.i11
  %10 = landingpad { ptr, i32 }
          catch ptr null
  %11 = extractvalue { ptr, i32 } %10, 0
  call void @__clang_call_terminate(ptr %11) #21
  unreachable

_ZN7svectorIjjED2Ev.exit:                         ; preds = %_ZN7obj_refI4expr11ast_managerED2Ev.exit, %if.then.i.i.i11
  %12 = load ptr, ptr %lo, align 8
  %tobool.not.i.i.i12 = icmp eq ptr %12, null
  br i1 %tobool.not.i.i.i12, label %_ZN7svectorIjjED2Ev.exit16, label %if.then.i.i.i13

if.then.i.i.i13:                                  ; preds = %_ZN7svectorIjjED2Ev.exit
  %add.ptr.i.i.i.i14 = getelementptr inbounds i8, ptr %12, i64 -8
  invoke void @_ZN6memory10deallocateEPv(ptr noundef nonnull %add.ptr.i.i.i.i14)
          to label %_ZN7svectorIjjED2Ev.exit16 unwind label %terminate.lpad.i.i15

terminate.lpad.i.i15:                             ; preds = %if.then.i.i.i13
  %13 = landingpad { ptr, i32 }
          catch ptr null
  %14 = extractvalue { ptr, i32 } %13, 0
  call void @__clang_call_terminate(ptr %14) #21
  unreachable

_ZN7svectorIjjED2Ev.exit16:                       ; preds = %_ZN7svectorIjjED2Ev.exit, %if.then.i.i.i13
  %15 = load ptr, ptr %num_children, align 8
  %tobool.not.i.i.i17 = icmp eq ptr %15, null
  br i1 %tobool.not.i.i.i17, label %_ZN7svectorIjjED2Ev.exit21, label %if.then.i.i.i18

if.then.i.i.i18:                                  ; preds = %_ZN7svectorIjjED2Ev.exit16
  %add.ptr.i.i.i.i19 = getelementptr inbounds i8, ptr %15, i64 -8
  invoke void @_ZN6memory10deallocateEPv(ptr noundef nonnull %add.ptr.i.i.i.i19)
          to label %_ZN7svectorIjjED2Ev.exit21 unwind label %terminate.lpad.i.i20

terminate.lpad.i.i20:                             ; preds = %if.then.i.i.i18
  %16 = landingpad { ptr, i32 }
          catch ptr null
  %17 = extractvalue { ptr, i32 } %16, 0
  call void @__clang_call_terminate(ptr %17) #21
  unreachable

_ZN7svectorIjjED2Ev.exit21:                       ; preds = %_ZN7svectorIjjED2Ev.exit16, %if.then.i.i.i18
  ret void

lpad4:                                            ; preds = %invoke.cont11, %invoke.cont10, %invoke.cont9, %invoke.cont7, %invoke.cont5, %entry
  %18 = landingpad { ptr, i32 }
          cleanup
  br label %ehcleanup

lpad13:                                           ; preds = %invoke.cont22, %invoke.cont18, %invoke.cont15, %invoke.cont14, %invoke.cont12
  %19 = landingpad { ptr, i32 }
          cleanup
  call void @_ZN7obj_refI4expr11ast_managerED2Ev(ptr noundef nonnull align 8 dereferenceable(16) %iv) #22
  br label %ehcleanup

ehcleanup:                                        ; preds = %lpad13, %lpad4
  %.pn = phi { ptr, i32 } [ %19, %lpad13 ], [ %18, %lpad4 ]
  call void @_ZN7svectorIjjED2Ev(ptr noundef nonnull align 8 dereferenceable(8) %hi) #22
  call void @_ZN7svectorIjjED2Ev(ptr noundef nonnull align 8 dereferenceable(8) %lo) #22
  call void @_ZN7svectorIjjED2Ev(ptr noundef nonnull align 8 dereferenceable(8) %num_children) #22
  resume { ptr, i32 } %.pn
}